; Function Attrs: nounwind uwtable
define ptr @l_Lake_InputFileConfig_path___proj___elambda__3(ptr readnone captures(none) %0, ptr noundef %1, ptr noundef %2) local_unnamed_addr #1 {
  %.val = load i32, ptr %2, align 4, !tbaa !8
  %4 = icmp eq i32 %.val, 1
  br i1 %4, label %5, label %17

5:                                                ; preds = %3
  %6 = getelementptr inbounds nuw i8, ptr %2, i64 8
  %7 = load ptr, ptr %6, align 8, !tbaa !4
  %8 = ptrtoint ptr %7 to i64
  %9 = and i64 %8, 1
  %.not17 = icmp eq i64 %9, 0
  br i1 %.not17, label %10, label %lean_dec.exit14

10:                                               ; preds = %5
  %11 = load i32, ptr %7, align 4, !tbaa !8
  %12 = icmp sgt i32 %11, 1
  br i1 %12, label %13, label %15, !prof !12

13:                                               ; preds = %10
  %14 = add nsw i32 %11, -1
  store i32 %14, ptr %7, align 4, !tbaa !8
  br label %lean_dec.exit14

15:                                               ; preds = %10
  %.not.i = icmp eq i32 %11, 0
  br i1 %.not.i, label %lean_dec.exit14, label %16

16:                                               ; preds = %15
  tail call void @lean_dec_ref_cold(ptr noundef nonnull %7) #7
  br label %lean_dec.exit14

lean_dec.exit14:                                  ; preds = %16, %15, %13, %5
  store ptr %1, ptr %6, align 8, !tbaa !4
  br label %34

17:                                               ; preds = %3
  %18 = getelementptr inbounds nuw i8, ptr %2, i64 16
  %19 = load i8, ptr %18, align 1, !tbaa !11
  %20 = ptrtoint ptr %2 to i64
  %21 = and i64 %20, 1
  %.not = icmp eq i64 %21, 0
  br i1 %.not, label %22, label %lean_dec.exit

22:                                               ; preds = %17
  %23 = icmp sgt i32 %.val, 1
  br i1 %23, label %24, label %26, !prof !12

24:                                               ; preds = %22
  %25 = add nsw i32 %.val, -1
  store i32 %25, ptr %2, align 4, !tbaa !8
  br label %lean_dec.exit

26:                                               ; preds = %22
  %.not.i15 = icmp eq i32 %.val, 0
  br i1 %.not.i15, label %lean_dec.exit, label %27

27:                                               ; preds = %26
  tail call void @lean_dec_ref_cold(ptr noundef nonnull %2) #7
  br label %lean_dec.exit

lean_dec.exit:                                    ; preds = %27, %26, %24, %17
  tail call void @lean_inc_heartbeat() #7
  %28 = tail call noalias ptr @mi_malloc_small(i64 noundef 24) #7
  %29 = icmp eq ptr %28, null
  br i1 %29, label %30, label %lean_alloc_ctor.exit

30:                                               ; preds = %lean_dec.exit
  tail call void @lean_internal_panic_out_of_memory() #8
  unreachable

lean_alloc_ctor.exit:                             ; preds = %lean_dec.exit
  %31 = getelementptr inbounds nuw i8, ptr %28, i64 4
  %32 = getelementptr inbounds nuw i8, ptr %28, i64 16
  store i64 0, ptr %32, align 8, !tbaa !13
  store i32 1, ptr %28, align 4, !tbaa !8
  store i32 65560, ptr %31, align 4
  %33 = getelementptr inbounds nuw i8, ptr %28, i64 8
  store ptr %1, ptr %33, align 8, !tbaa !4
  store i8 %19, ptr %32, align 1, !tbaa !11
  br label %34

34:                                               ; preds = %lean_alloc_ctor.exit, %lean_dec.exit14
  %.0 = phi ptr [ %2, %lean_dec.exit14 ], [ %28, %lean_alloc_ctor.exit ]
  ret ptr %.0
}